target datalayout = "e-m:e-p270:32:32-p271:32:32-p272:64:64-i64:64-i128:128-f80:128-n8:16:32:64-S128"
target triple = "x86_64-pc-linux-gnu"

%struct.PyMemAllocatorEx = type { ptr, ptr, ptr, ptr, ptr }
%struct.PyStatus = type { i32, ptr, ptr, i32 }
%struct._preinit_entry = type { ptr, ptr }

; Function Attrs: nounwind uwtable
define internal ptr @_alloc_preinit_entry(ptr noundef %0) #0 {
  %2 = alloca ptr, align 8
  %3 = alloca %struct.PyStatus, align 8
  %4 = alloca %struct.PyMemAllocatorEx, align 8
  %5 = alloca ptr, align 8
  store ptr %0, ptr %2, align 8, !tbaa !233
  call void @llvm.lifetime.start.p0(i64 32, ptr %3) #12
  call void @_PyRuntime_Initialize(ptr dead_on_unwind writable sret(%struct.PyStatus) align 8 %3)
  call void @llvm.lifetime.end.p0(i64 32, ptr %3) #12
  call void @llvm.lifetime.start.p0(i64 40, ptr %4) #12
  %6 = call i32 @_PyMem_SetDefaultAllocator(i32 noundef 0, ptr noundef %4)
  call void @llvm.lifetime.start.p0(i64 8, ptr %5) #12
  %7 = call ptr @PyMem_RawCalloc(i64 noundef 1, i64 noundef 16)
  store ptr %7, ptr %5, align 8, !tbaa !220
  %8 = load ptr, ptr %5, align 8, !tbaa !220
  %9 = icmp ne ptr %8, null
  br i1 %9, label %10, label %22

10:                                               ; preds = %1
  %11 = load ptr, ptr %2, align 8, !tbaa !233
  %12 = call ptr @_PyMem_RawWcsdup(ptr noundef %11)
  %13 = load ptr, ptr %5, align 8, !tbaa !220
  %14 = getelementptr inbounds nuw %struct._preinit_entry, ptr %13, i32 0, i32 0
  store ptr %12, ptr %14, align 8, !tbaa !222
  %15 = load ptr, ptr %5, align 8, !tbaa !220
  %16 = getelementptr inbounds nuw %struct._preinit_entry, ptr %15, i32 0, i32 0
  %17 = load ptr, ptr %16, align 8, !tbaa !222
  %18 = icmp eq ptr %17, null
  br i1 %18, label %19, label %21

19:                                               ; preds = %10
  %20 = load ptr, ptr %5, align 8, !tbaa !220
  call void @PyMem_RawFree(ptr noundef %20)
  store ptr null, ptr %5, align 8, !tbaa !220
  br label %21

21:                                               ; preds = %19, %10
  br label %22

22:                                               ; preds = %21, %1
  call void @PyMem_SetAllocator(i32 noundef 0, ptr noundef %4)
  %23 = load ptr, ptr %5, align 8, !tbaa !220
  call void @llvm.lifetime.end.p0(i64 8, ptr %5) #12
  call void @llvm.lifetime.end.p0(i64 40, ptr %4) #12
  ret ptr %23
}

; Function Attrs: nounwind uwtable
define internal i32 @_append_preinit_entry(ptr noundef %0, ptr noundef %1) #0 {
  %3 = alloca i32, align 4
  %4 = alloca ptr, align 8
  %5 = alloca ptr, align 8
  %6 = alloca ptr, align 8
  %7 = alloca i32, align 4
  %8 = alloca ptr, align 8
  store ptr %0, ptr %4, align 8, !tbaa !229
  store ptr %1, ptr %5, align 8, !tbaa !233
  call void @llvm.lifetime.start.p0(i64 8, ptr %6) #12
  %9 = load ptr, ptr %5, align 8, !tbaa !233
  %10 = call ptr @_alloc_preinit_entry(ptr noundef %9)
  store ptr %10, ptr %6, align 8, !tbaa !220
  %11 = load ptr, ptr %6, align 8, !tbaa !220
  %12 = icmp eq ptr %11, null
  br i1 %12, label %13, label %14

13:                                               ; preds = %2
  store i32 -1, ptr %3, align 4
  store i32 1, ptr %7, align 4
  br label %37

14:                                               ; preds = %2
  call void @llvm.lifetime.start.p0(i64 8, ptr %8) #12
  %15 = load ptr, ptr %4, align 8, !tbaa !229
  %16 = load ptr, ptr %15, align 8, !tbaa !220
  store ptr %16, ptr %8, align 8, !tbaa !220
  %17 = load ptr, ptr %8, align 8, !tbaa !220
  %18 = icmp eq ptr %17, null
  br i1 %18, label %19, label %22

19:                                               ; preds = %14
  %20 = load ptr, ptr %6, align 8, !tbaa !220
  %21 = load ptr, ptr %4, align 8, !tbaa !229
  store ptr %20, ptr %21, align 8, !tbaa !220
  br label %36

22:                                               ; preds = %14
  br label %23

23:                                               ; preds = %28, %22
  %24 = load ptr, ptr %8, align 8, !tbaa !220
  %25 = getelementptr inbounds nuw %struct._preinit_entry, ptr %24, i32 0, i32 1
  %26 = load ptr, ptr %25, align 8, !tbaa !227
  %27 = icmp ne ptr %26, null
  br i1 %27, label %28, label %32

28:                                               ; preds = %23
  %29 = load ptr, ptr %8, align 8, !tbaa !220
  %30 = getelementptr inbounds nuw %struct._preinit_entry, ptr %29, i32 0, i32 1
  %31 = load ptr, ptr %30, align 8, !tbaa !227
  store ptr %31, ptr %8, align 8, !tbaa !220
  br label %23, !llvm.loop !234

32:                                               ; preds = %23
  %33 = load ptr, ptr %6, align 8, !tbaa !220
  %34 = load ptr, ptr %8, align 8, !tbaa !220
  %35 = getelementptr inbounds nuw %struct._preinit_entry, ptr %34, i32 0, i32 1
  store ptr %33, ptr %35, align 8, !tbaa !227
  br label %36

36:                                               ; preds = %32, %19
  store i32 0, ptr %3, align 4
  store i32 1, ptr %7, align 4
  call void @llvm.lifetime.end.p0(i64 8, ptr %8) #12
  br label %37

37:                                               ; preds = %36, %13
  call void @llvm.lifetime.end.p0(i64 8, ptr %6) #12
  %38 = load i32, ptr %3, align 4
  ret i32 %38
}