; Function Attrs: nounwind uwtable
define internal fastcc void @_append_preinit_entry(ptr noundef captures(none) %0, ptr noundef %1) unnamed_addr #0 {
  %3 = alloca %struct.PyStatus, align 8
  %4 = alloca %struct.PyMemAllocatorEx, align 8
  call void @llvm.lifetime.start.p0(i64 32, ptr nonnull %3) #15
  call void @_PyRuntime_Initialize(ptr dead_on_unwind nonnull writable sret(%struct.PyStatus) align 8 %3) #15
  call void @llvm.lifetime.end.p0(i64 32, ptr nonnull %3) #15
  call void @llvm.lifetime.start.p0(i64 40, ptr nonnull %4) #15
  %5 = call i32 @_PyMem_SetDefaultAllocator(i32 noundef 0, ptr noundef nonnull %4) #15
  %6 = call ptr @PyMem_RawCalloc(i64 noundef 1, i64 noundef 16) #15
  %.not.i = icmp eq ptr %6, null
  br i1 %.not.i, label %_alloc_preinit_entry.exit.thread, label %7

7:                                                ; preds = %2
  %8 = call ptr @_PyMem_RawWcsdup(ptr noundef %1) #15
  store ptr %8, ptr %6, align 8, !tbaa !209
  %9 = icmp eq ptr %8, null
  br i1 %9, label %10, label %11

10:                                               ; preds = %7
  call void @PyMem_RawFree(ptr noundef nonnull %6) #15
  br label %_alloc_preinit_entry.exit.thread

_alloc_preinit_entry.exit.thread:                 ; preds = %10, %2
  call void @PyMem_SetAllocator(i32 noundef 0, ptr noundef nonnull %4) #15
  call void @llvm.lifetime.end.p0(i64 40, ptr nonnull %4) #15
  br label %19

11:                                               ; preds = %7
  call void @PyMem_SetAllocator(i32 noundef 0, ptr noundef nonnull %4) #15
  call void @llvm.lifetime.end.p0(i64 40, ptr nonnull %4) #15
  %12 = load ptr, ptr %0, align 8, !tbaa !206
  %13 = icmp eq ptr %12, null
  br i1 %13, label %14, label %.preheader

14:                                               ; preds = %11
  store ptr %6, ptr %0, align 8, !tbaa !206
  br label %19

.preheader:                                       ; preds = %11, %.preheader
  %.0 = phi ptr [ %16, %.preheader ], [ %12, %11 ]
  %15 = getelementptr inbounds nuw i8, ptr %.0, i64 8
  %16 = load ptr, ptr %15, align 8, !tbaa !214
  %.not = icmp eq ptr %16, null
  br i1 %.not, label %17, label %.preheader, !llvm.loop !218

17:                                               ; preds = %.preheader
  %18 = getelementptr inbounds nuw i8, ptr %.0, i64 8
  store ptr %6, ptr %18, align 8, !tbaa !214
  br label %19

19:                                               ; preds = %_alloc_preinit_entry.exit.thread, %14, %17
  ret void
}